target datalayout = "e-m:e-p270:32:32-p271:32:32-p272:64:64-i64:64-i128:128-f80:128-n8:16:32:64-S128"
target triple = "x86_64-pc-linux-gnu"

%struct.PS_UniMap_ = type { i32, i32 }

; Function Attrs: nounwind uwtable
define internal i32 @compare_uni_maps(ptr noundef %0, ptr noundef %1) #0 {
  %3 = alloca i32, align 4
  %4 = alloca ptr, align 8
  %5 = alloca ptr, align 8
  %6 = alloca ptr, align 8
  %7 = alloca ptr, align 8
  %8 = alloca i32, align 4
  %9 = alloca i32, align 4
  %10 = alloca i32, align 4
  store ptr %0, ptr %4, align 8, !tbaa !21
  store ptr %1, ptr %5, align 8, !tbaa !21
  call void @llvm.lifetime.start.p0(i64 8, ptr %6) #5
  %11 = load ptr, ptr %4, align 8, !tbaa !21
  store ptr %11, ptr %6, align 8, !tbaa !31
  call void @llvm.lifetime.start.p0(i64 8, ptr %7) #5
  %12 = load ptr, ptr %5, align 8, !tbaa !21
  store ptr %12, ptr %7, align 8, !tbaa !31
  call void @llvm.lifetime.start.p0(i64 4, ptr %8) #5
  %13 = load ptr, ptr %6, align 8, !tbaa !31
  %14 = getelementptr inbounds nuw %struct.PS_UniMap_, ptr %13, i32 0, i32 0
  %15 = load i32, ptr %14, align 4, !tbaa !32
  %16 = zext i32 %15 to i64
  %17 = and i64 %16, -2147483649
  %18 = trunc i64 %17 to i32
  store i32 %18, ptr %8, align 4, !tbaa !11
  call void @llvm.lifetime.start.p0(i64 4, ptr %9) #5
  %19 = load ptr, ptr %7, align 8, !tbaa !31
  %20 = getelementptr inbounds nuw %struct.PS_UniMap_, ptr %19, i32 0, i32 0
  %21 = load i32, ptr %20, align 4, !tbaa !32
  %22 = zext i32 %21 to i64
  %23 = and i64 %22, -2147483649
  %24 = trunc i64 %23 to i32
  store i32 %24, ptr %9, align 4, !tbaa !11
  %25 = load i32, ptr %8, align 4, !tbaa !11
  %26 = load i32, ptr %9, align 4, !tbaa !11
  %27 = icmp eq i32 %25, %26
  br i1 %27, label %28, label %47

28:                                               ; preds = %2
  %29 = load ptr, ptr %6, align 8, !tbaa !31
  %30 = getelementptr inbounds nuw %struct.PS_UniMap_, ptr %29, i32 0, i32 0
  %31 = load i32, ptr %30, align 4, !tbaa !32
  %32 = load ptr, ptr %7, align 8, !tbaa !31
  %33 = getelementptr inbounds nuw %struct.PS_UniMap_, ptr %32, i32 0, i32 0
  %34 = load i32, ptr %33, align 4, !tbaa !32
  %35 = icmp ugt i32 %31, %34
  br i1 %35, label %36, label %37

36:                                               ; preds = %28
  store i32 1, ptr %3, align 4
  store i32 1, ptr %10, align 4
  br label %58

37:                                               ; preds = %28
  %38 = load ptr, ptr %6, align 8, !tbaa !31
  %39 = getelementptr inbounds nuw %struct.PS_UniMap_, ptr %38, i32 0, i32 0
  %40 = load i32, ptr %39, align 4, !tbaa !32
  %41 = load ptr, ptr %7, align 8, !tbaa !31
  %42 = getelementptr inbounds nuw %struct.PS_UniMap_, ptr %41, i32 0, i32 0
  %43 = load i32, ptr %42, align 4, !tbaa !32
  %44 = icmp ult i32 %40, %43
  br i1 %44, label %45, label %46

45:                                               ; preds = %37
  store i32 -1, ptr %3, align 4
  store i32 1, ptr %10, align 4
  br label %58

46:                                               ; preds = %37
  store i32 0, ptr %3, align 4
  store i32 1, ptr %10, align 4
  br label %58

47:                                               ; preds = %2
  %48 = load i32, ptr %8, align 4, !tbaa !11
  %49 = load i32, ptr %9, align 4, !tbaa !11
  %50 = icmp ugt i32 %48, %49
  br i1 %50, label %51, label %52

51:                                               ; preds = %47
  store i32 1, ptr %3, align 4
  store i32 1, ptr %10, align 4
  br label %58

52:                                               ; preds = %47
  %53 = load i32, ptr %8, align 4, !tbaa !11
  %54 = load i32, ptr %9, align 4, !tbaa !11
  %55 = icmp ult i32 %53, %54
  br i1 %55, label %56, label %57

56:                                               ; preds = %52
  store i32 -1, ptr %3, align 4
  store i32 1, ptr %10, align 4
  br label %58

57:                                               ; preds = %52
  store i32 0, ptr %3, align 4
  store i32 1, ptr %10, align 4
  br label %58

58:                                               ; preds = %57, %56, %51, %46, %45, %36
  call void @llvm.lifetime.end.p0(i64 4, ptr %9) #5
  call void @llvm.lifetime.end.p0(i64 4, ptr %8) #5
  call void @llvm.lifetime.end.p0(i64 8, ptr %7) #5
  call void @llvm.lifetime.end.p0(i64 8, ptr %6) #5
  %59 = load i32, ptr %3, align 4
  ret i32 %59
}