; Function Attrs: mustprogress nofree norecurse nosync nounwind willreturn memory(argmem: read) uwtable
define internal range(i32 -1, 2) i32 @compare_uni_maps(ptr noundef readonly captures(none) %0, ptr noundef readonly captures(none) %1) #9 {
  %3 = load i32, ptr %0, align 4, !tbaa !25
  %4 = and i32 %3, 2147483647
  %5 = load i32, ptr %1, align 4, !tbaa !25
  %6 = and i32 %5, 2147483647
  %7 = icmp eq i32 %4, %6
  br i1 %7, label %8, label %12

8:                                                ; preds = %2
  %9 = icmp ugt i32 %3, %5
  br i1 %9, label %16, label %10

10:                                               ; preds = %8
  %11 = icmp ult i32 %3, %5
  %. = sext i1 %11 to i32
  br label %16

12:                                               ; preds = %2
  %13 = icmp samesign ugt i32 %4, %6
  br i1 %13, label %16, label %14

14:                                               ; preds = %12
  %15 = icmp samesign ult i32 %4, %6
  %.18 = sext i1 %15 to i32
  br label %16

16:                                               ; preds = %14, %12, %10, %8
  %.0 = phi i32 [ 1, %8 ], [ %., %10 ], [ 1, %12 ], [ %.18, %14 ]
  ret i32 %.0
}